target datalayout = "e-m:e-p270:32:32-p271:32:32-p272:64:64-i64:64-i128:128-f80:128-n8:16:32:64-S128"
target triple = "x86_64-pc-linux-gnu"

%struct.redisServer = type { i32, i64, ptr, ptr, ptr, i32, i32, i32, i32, i32, ptr, ptr, ptr, ptr, ptr, i32, i32, i32, i32, i64, i32, i32, i32, i32, ptr, i32, i32, [41 x i8], i32, i64, i32, i32, i32, ptr, ptr, i32, i32, i64, ptr, ptr, ptr, ptr, [2 x i32], i32, i32, i32, i32, i32, i32, [16 x ptr], i32, ptr, ptr, i32, [8 x %struct.connListener], i32, %struct.connListener, ptr, ptr, ptr, ptr, ptr, ptr, ptr, ptr, ptr, ptr, i32, ptr, i32, ptr, [3 x %struct.pause_event], [256 x i8], ptr, i64, i32, i32, [128 x i32], i32, i32, i64, i32, i32, i32, i32, i32, i64, i64, i64, i64, i64, i64, i64, i64, i64, i64, double, i64, i64, i64, i64, i64, i64, i64, i64, i64, i64, i64, i64, i64, i64, i64, i64, i64, i64, i64, i64, i64, double, i64, i64, i64, i64, i64, ptr, i64, i64, i64, %struct.malloc_stats, i64, i64, i64, i64, i64, i64, i64, i64, i64, i64, i64, i64, double, [4 x i64], i64, i64, i64, i64, [128 x i64], [128 x i64], i64, i64, [7 x %struct.anon], i64, i64, i64, i64, i64, i64, [4 x %struct.durationStats], i32, i32, i32, i32, i32, i32, i32, i32, i32, i32, i32, i32, i64, i32, i32, i32, i32, i64, i64, i32, i32, i32, i32, i32, ptr, [3 x %struct.clientBufferLimitsConfig], i32, i32, i32, ptr, i32, i32, i32, i32, i32, i32, ptr, ptr, i32, i32, i64, i64, i64, i64, i64, i32, i32, ptr, i32, i32, i64, i64, i64, i64, i64, i32, i32, i64, i32, i32, i32, i32, i32, i32, i32, i32, ptr, i32, i64, i64, i64, i64, i32, ptr, i32, ptr, i32, i32, i32, i64, i64, i64, i64, i32, i32, i32, i32, i32, i32, ptr, i32, i32, ptr, i32, i32, i32, [2 x i32], i32, %struct.redisOpArray, i32, ptr, i32, ptr, i32, i32, i32, i32, i32, i32, i32, [41 x i8], [41 x i8], i64, i64, i64, i64, i32, i32, ptr, i64, i64, %struct.replDataBuf, i64, i64, i32, i32, i32, i32, i32, i32, i32, i32, i32, i64, ptr, i64, ptr, ptr, ptr, i32, i32, ptr, ptr, i32, i32, i32, i64, i64, i64, i64, ptr, ptr, i32, ptr, i64, i32, i32, i32, i64, i32, i32, i32, i32, ptr, i32, i32, [41 x i8], i64, i32, ptr, i32, i32, i64, i64, i32, i32, i32, i32, i32, i64, [3 x i32], i32, i32, i32, [10 x i32], ptr, ptr, i32, i64, ptr, ptr, i32, i32, i32, i32, i64, i64, i64, i64, i64, i64, i64, i64, i64, i64, i32, i32, i64, i64, i32, i64, i64, i64, i64, i64, ptr, ptr, i32, ptr, i32, i32, i32, i32, i64, i64, ptr, ptr, i32, i32, i32, i32, i32, ptr, ptr, ptr, i32, i32, i32, i32, i32, i32, i32, i64, i32, i32, i64, i32, i32, i32, i32, i32, i32, i32, i64, ptr, ptr, i64, ptr, i32, %struct.aclInfo, i32, i64, i32, i32, i32, %struct.redisTLSContextConfig, ptr, ptr, ptr, ptr, ptr, i64, i32, ptr, i32, i32, i32, i64, i32, ptr }
%struct.connListener = type { [16 x i32], i32, ptr, i32, i32, ptr, ptr }
%struct.pause_event = type { i32, i64 }
%struct.malloc_stats = type { i64, i64, i64, i64, i64, i64, i64, i64, i64, i64, i64 }
%struct.anon = type { i64, i64, [16 x i64], i32 }
%struct.durationStats = type { i64, i64, i64 }
%struct.clientBufferLimitsConfig = type { i64, i64, i64 }
%struct.redisOpArray = type { ptr, i32, i32 }
%struct.replDataBuf = type { ptr, i64, i64, i64, i64 }
%struct.aclInfo = type { i64, i64, i64, i64 }
%struct.redisTLSContextConfig = type { ptr, ptr, ptr, ptr, ptr, ptr, ptr, ptr, ptr, ptr, ptr, ptr, i32, i32, i32, i32 }
%struct.ExpireMeta = type { i32, i16, i16, ptr }
%struct.redisObject = type { i32, i32, ptr }
%struct.listpackEx = type { %struct.ExpireMeta, ptr, ptr }
%struct.redisDb = type { ptr, ptr, ptr, ptr, ptr, ptr, ptr, i32, i64, i64, ptr }
%struct.sdshdr8 = type { i8, i8, i8, [0 x i8] }
%struct.sdshdr16 = type <{ i16, i16, i8, [0 x i8] }>
%struct.sdshdr32 = type <{ i32, i32, i8, [0 x i8] }>
%struct.sdshdr64 = type <{ i64, i64, i8, [0 x i8] }>

@.str.2 = private unnamed_addr constant [9 x i8] c"t_hash.c\00", align 1
@server = external global %struct.redisServer, align 8
@.str.6 = private unnamed_addr constant [21 x i8] c"Unknown encoding: %d\00", align 1
@.str.11 = private unnamed_addr constant [22 x i8] c"Unknown hash encoding\00", align 1
@.str.28 = private unnamed_addr constant [16 x i8] c"Not implemented\00", align 1

; Function Attrs: nounwind uwtable
define dso_local ptr @hashTypeListpackGetLp(ptr noundef %0) #1 {
  %2 = alloca ptr, align 8
  %3 = alloca ptr, align 8
  store ptr %0, ptr %3, align 8, !tbaa !15
  %4 = load ptr, ptr %3, align 8, !tbaa !15
  %5 = load i32, ptr %4, align 8
  %6 = lshr i32 %5, 4
  %7 = and i32 %6, 15
  %8 = icmp eq i32 %7, 11
  br i1 %8, label %9, label %13

9:                                                ; preds = %1
  %10 = load ptr, ptr %3, align 8, !tbaa !15
  %11 = getelementptr inbounds nuw %struct.redisObject, ptr %10, i32 0, i32 2
  %12 = load ptr, ptr %11, align 8, !tbaa !17
  store ptr %12, ptr %2, align 8
  br label %31

13:                                               ; preds = %1
  %14 = load ptr, ptr %3, align 8, !tbaa !15
  %15 = load i32, ptr %14, align 8
  %16 = lshr i32 %15, 4
  %17 = and i32 %16, 15
  %18 = icmp eq i32 %17, 12
  br i1 %18, label %19, label %25

19:                                               ; preds = %13
  %20 = load ptr, ptr %3, align 8, !tbaa !15
  %21 = getelementptr inbounds nuw %struct.redisObject, ptr %20, i32 0, i32 2
  %22 = load ptr, ptr %21, align 8, !tbaa !17
  %23 = getelementptr inbounds nuw %struct.listpackEx, ptr %22, i32 0, i32 2
  %24 = load ptr, ptr %23, align 8, !tbaa !21
  store ptr %24, ptr %2, align 8
  br label %31

25:                                               ; preds = %13
  br label %26

26:                                               ; preds = %25
  %27 = load ptr, ptr %3, align 8, !tbaa !15
  %28 = load i32, ptr %27, align 8
  %29 = lshr i32 %28, 4
  %30 = and i32 %29, 15
  call void (ptr, i32, ptr, ...) @_serverPanic(ptr noundef @.str.2, i32 noundef 594, ptr noundef @.str.6, i32 noundef %30)
  call void @abort() #14
  unreachable

31:                                               ; preds = %19, %9
  %32 = load ptr, ptr %2, align 8
  ret ptr %32
}

; Function Attrs: inlinehint nounwind uwtable
define internal i64 @sdslen(ptr noundef %0) #7 {
  %2 = alloca i64, align 8
  %3 = alloca ptr, align 8
  %4 = alloca i8, align 1
  %5 = alloca i32, align 4
  store ptr %0, ptr %3, align 8, !tbaa !33
  call void @llvm.lifetime.start.p0(i64 1, ptr %4) #12
  %6 = load ptr, ptr %3, align 8, !tbaa !33
  %7 = getelementptr inbounds i8, ptr %6, i64 -1
  %8 = load i8, ptr %7, align 1, !tbaa !95
  store i8 %8, ptr %4, align 1, !tbaa !95
  %9 = load i8, ptr %4, align 1, !tbaa !95
  %10 = zext i8 %9 to i32
  %11 = and i32 %10, 7
  switch i32 %11, label %40 [
    i32 0, label %12
    i32 1, label %17
    i32 2, label %23
    i32 3, label %29
    i32 4, label %35
  ]

12:                                               ; preds = %1
  %13 = load i8, ptr %4, align 1, !tbaa !95
  %14 = zext i8 %13 to i32
  %15 = ashr i32 %14, 3
  %16 = sext i32 %15 to i64
  store i64 %16, ptr %2, align 8
  store i32 1, ptr %5, align 4
  br label %41

17:                                               ; preds = %1
  %18 = load ptr, ptr %3, align 8, !tbaa !33
  %19 = getelementptr inbounds i8, ptr %18, i64 -3
  %20 = getelementptr inbounds nuw %struct.sdshdr8, ptr %19, i32 0, i32 0
  %21 = load i8, ptr %20, align 1, !tbaa !95
  %22 = zext i8 %21 to i64
  store i64 %22, ptr %2, align 8
  store i32 1, ptr %5, align 4
  br label %41

23:                                               ; preds = %1
  %24 = load ptr, ptr %3, align 8, !tbaa !33
  %25 = getelementptr inbounds i8, ptr %24, i64 -5
  %26 = getelementptr inbounds nuw %struct.sdshdr16, ptr %25, i32 0, i32 0
  %27 = load i16, ptr %26, align 1, !tbaa !96
  %28 = zext i16 %27 to i64
  store i64 %28, ptr %2, align 8
  store i32 1, ptr %5, align 4
  br label %41

29:                                               ; preds = %1
  %30 = load ptr, ptr %3, align 8, !tbaa !33
  %31 = getelementptr inbounds i8, ptr %30, i64 -9
  %32 = getelementptr inbounds nuw %struct.sdshdr32, ptr %31, i32 0, i32 0
  %33 = load i32, ptr %32, align 1, !tbaa !13
  %34 = zext i32 %33 to i64
  store i64 %34, ptr %2, align 8
  store i32 1, ptr %5, align 4
  br label %41

35:                                               ; preds = %1
  %36 = load ptr, ptr %3, align 8, !tbaa !33
  %37 = getelementptr inbounds i8, ptr %36, i64 -17
  %38 = getelementptr inbounds nuw %struct.sdshdr64, ptr %37, i32 0, i32 0
  %39 = load i64, ptr %38, align 1, !tbaa !31
  store i64 %39, ptr %2, align 8
  store i32 1, ptr %5, align 4
  br label %41

40:                                               ; preds = %1
  store i64 0, ptr %2, align 8
  store i32 1, ptr %5, align 4
  br label %41

41:                                               ; preds = %40, %35, %29, %23, %17, %12
  call void @llvm.lifetime.end.p0(i64 1, ptr %4) #12
  %42 = load i64, ptr %2, align 8
  ret i64 %42
}

; Function Attrs: nounwind uwtable
define dso_local void @hashTypeConvert(ptr noundef %0, i32 noundef %1, ptr noundef %2) #1 {
  %4 = alloca ptr, align 8
  %5 = alloca i32, align 4
  %6 = alloca ptr, align 8
  store ptr %0, ptr %4, align 8, !tbaa !15
  store i32 %1, ptr %5, align 4, !tbaa !13
  store ptr %2, ptr %6, align 8, !tbaa !10
  %7 = load ptr, ptr %4, align 8, !tbaa !15
  %8 = load i32, ptr %7, align 8
  %9 = lshr i32 %8, 4
  %10 = and i32 %9, 15
  %11 = icmp eq i32 %10, 11
  br i1 %11, label %12, label %15

12:                                               ; preds = %3
  %13 = load ptr, ptr %4, align 8, !tbaa !15
  %14 = load i32, ptr %5, align 4, !tbaa !13
  call void @hashTypeConvertListpack(ptr noundef %13, i32 noundef %14)
  br label %34

15:                                               ; preds = %3
  %16 = load ptr, ptr %4, align 8, !tbaa !15
  %17 = load i32, ptr %16, align 8
  %18 = lshr i32 %17, 4
  %19 = and i32 %18, 15
  %20 = icmp eq i32 %19, 12
  br i1 %20, label %21, label %25

21:                                               ; preds = %15
  %22 = load ptr, ptr %4, align 8, !tbaa !15
  %23 = load i32, ptr %5, align 4, !tbaa !13
  %24 = load ptr, ptr %6, align 8, !tbaa !10
  call void @hashTypeConvertListpackEx(ptr noundef %22, i32 noundef %23, ptr noundef %24)
  br label %33

25:                                               ; preds = %15
  %26 = load ptr, ptr %4, align 8, !tbaa !15
  %27 = load i32, ptr %26, align 8
  %28 = lshr i32 %27, 4
  %29 = and i32 %28, 15
  %30 = icmp eq i32 %29, 2
  br i1 %30, label %31, label %32

31:                                               ; preds = %25
  call void (ptr, i32, ptr, ...) @_serverPanic(ptr noundef @.str.2, i32 noundef 1687, ptr noundef @.str.28)
  call void @abort() #14
  unreachable

32:                                               ; preds = %25
  call void (ptr, i32, ptr, ...) @_serverPanic(ptr noundef @.str.2, i32 noundef 1689, ptr noundef @.str.11)
  call void @abort() #14
  unreachable

33:                                               ; preds = %21
  br label %34

34:                                               ; preds = %33, %12
  ret void
}

; Function Attrs: nounwind uwtable
define dso_local void @hashTypeTryConversion(ptr noundef %0, ptr noundef %1, ptr noundef %2, i32 noundef %3, i32 noundef %4) #1 {
  %6 = alloca ptr, align 8
  %7 = alloca ptr, align 8
  %8 = alloca ptr, align 8
  %9 = alloca i32, align 4
  %10 = alloca i32, align 4
  %11 = alloca i32, align 4
  %12 = alloca i64, align 8
  %13 = alloca i32, align 4
  %14 = alloca i64, align 8
  %15 = alloca i64, align 8
  store ptr %0, ptr %6, align 8, !tbaa !27
  store ptr %1, ptr %7, align 8, !tbaa !15
  store ptr %2, ptr %8, align 8, !tbaa !97
  store i32 %3, ptr %9, align 4, !tbaa !13
  store i32 %4, ptr %10, align 4, !tbaa !13
  call void @llvm.lifetime.start.p0(i64 4, ptr %11) #12
  call void @llvm.lifetime.start.p0(i64 8, ptr %12) #12
  store i64 0, ptr %12, align 8, !tbaa !31
  %16 = load ptr, ptr %7, align 8, !tbaa !15
  %17 = load i32, ptr %16, align 8
  %18 = lshr i32 %17, 4
  %19 = and i32 %18, 15
  %20 = icmp ne i32 %19, 11
  br i1 %20, label %21, label %28

21:                                               ; preds = %5
  %22 = load ptr, ptr %7, align 8, !tbaa !15
  %23 = load i32, ptr %22, align 8
  %24 = lshr i32 %23, 4
  %25 = and i32 %24, 15
  %26 = icmp ne i32 %25, 12
  br i1 %26, label %27, label %28

27:                                               ; preds = %21
  store i32 1, ptr %13, align 4
  br label %112

28:                                               ; preds = %21, %5
  call void @llvm.lifetime.start.p0(i64 8, ptr %14) #12
  %29 = load i32, ptr %10, align 4, !tbaa !13
  %30 = load i32, ptr %9, align 4, !tbaa !13
  %31 = sub nsw i32 %29, %30
  %32 = add nsw i32 %31, 1
  %33 = sdiv i32 %32, 2
  %34 = sext i32 %33 to i64
  store i64 %34, ptr %14, align 8, !tbaa !31
  %35 = load i64, ptr %14, align 8, !tbaa !31
  %36 = load i64, ptr getelementptr inbounds nuw (%struct.redisServer, ptr @server, i32 0, i32 354), align 8, !tbaa !99
  %37 = icmp ugt i64 %35, %36
  br i1 %37, label %38, label %47

38:                                               ; preds = %28
  %39 = load ptr, ptr %7, align 8, !tbaa !15
  %40 = load ptr, ptr %6, align 8, !tbaa !27
  %41 = getelementptr inbounds nuw %struct.redisDb, ptr %40, i32 0, i32 2
  call void @hashTypeConvert(ptr noundef %39, i32 noundef 2, ptr noundef %41)
  %42 = load ptr, ptr %7, align 8, !tbaa !15
  %43 = getelementptr inbounds nuw %struct.redisObject, ptr %42, i32 0, i32 2
  %44 = load ptr, ptr %43, align 8, !tbaa !17
  %45 = load i64, ptr %14, align 8, !tbaa !31
  %46 = call i32 @dictExpand(ptr noundef %44, i64 noundef %45)
  store i32 1, ptr %13, align 4
  br label %111

47:                                               ; preds = %28
  %48 = load i32, ptr %9, align 4, !tbaa !13
  store i32 %48, ptr %11, align 4, !tbaa !13
  br label %49

49:                                               ; preds = %97, %47
  %50 = load i32, ptr %11, align 4, !tbaa !13
  %51 = load i32, ptr %10, align 4, !tbaa !13
  %52 = icmp sle i32 %50, %51
  br i1 %52, label %53, label %100

53:                                               ; preds = %49
  %54 = load ptr, ptr %8, align 8, !tbaa !97
  %55 = load i32, ptr %11, align 4, !tbaa !13
  %56 = sext i32 %55 to i64
  %57 = getelementptr inbounds ptr, ptr %54, i64 %56
  %58 = load ptr, ptr %57, align 8, !tbaa !15
  %59 = load i32, ptr %58, align 8
  %60 = lshr i32 %59, 4
  %61 = and i32 %60, 15
  %62 = icmp eq i32 %61, 0
  br i1 %62, label %74, label %63

63:                                               ; preds = %53
  %64 = load ptr, ptr %8, align 8, !tbaa !97
  %65 = load i32, ptr %11, align 4, !tbaa !13
  %66 = sext i32 %65 to i64
  %67 = getelementptr inbounds ptr, ptr %64, i64 %66
  %68 = load ptr, ptr %67, align 8, !tbaa !15
  %69 = load i32, ptr %68, align 8
  %70 = lshr i32 %69, 4
  %71 = and i32 %70, 15
  %72 = icmp eq i32 %71, 8
  br i1 %72, label %74, label %73

73:                                               ; preds = %63
  br label %97

74:                                               ; preds = %63, %53
  call void @llvm.lifetime.start.p0(i64 8, ptr %15) #12
  %75 = load ptr, ptr %8, align 8, !tbaa !97
  %76 = load i32, ptr %11, align 4, !tbaa !13
  %77 = sext i32 %76 to i64
  %78 = getelementptr inbounds ptr, ptr %75, i64 %77
  %79 = load ptr, ptr %78, align 8, !tbaa !15
  %80 = getelementptr inbounds nuw %struct.redisObject, ptr %79, i32 0, i32 2
  %81 = load ptr, ptr %80, align 8, !tbaa !17
  %82 = call i64 @sdslen(ptr noundef %81)
  store i64 %82, ptr %15, align 8, !tbaa !31
  %83 = load i64, ptr %15, align 8, !tbaa !31
  %84 = load i64, ptr getelementptr inbounds nuw (%struct.redisServer, ptr @server, i32 0, i32 355), align 8, !tbaa !100
  %85 = icmp ugt i64 %83, %84
  br i1 %85, label %86, label %90

86:                                               ; preds = %74
  %87 = load ptr, ptr %7, align 8, !tbaa !15
  %88 = load ptr, ptr %6, align 8, !tbaa !27
  %89 = getelementptr inbounds nuw %struct.redisDb, ptr %88, i32 0, i32 2
  call void @hashTypeConvert(ptr noundef %87, i32 noundef 2, ptr noundef %89)
  store i32 1, ptr %13, align 4
  br label %94

90:                                               ; preds = %74
  %91 = load i64, ptr %15, align 8, !tbaa !31
  %92 = load i64, ptr %12, align 8, !tbaa !31
  %93 = add i64 %92, %91
  store i64 %93, ptr %12, align 8, !tbaa !31
  store i32 0, ptr %13, align 4
  br label %94

94:                                               ; preds = %90, %86
  call void @llvm.lifetime.end.p0(i64 8, ptr %15) #12
  %95 = load i32, ptr %13, align 4
  switch i32 %95, label %111 [
    i32 0, label %96
  ]

96:                                               ; preds = %94
  br label %97

97:                                               ; preds = %96, %73
  %98 = load i32, ptr %11, align 4, !tbaa !13
  %99 = add nsw i32 %98, 1
  store i32 %99, ptr %11, align 4, !tbaa !13
  br label %49, !llvm.loop !101

100:                                              ; preds = %49
  %101 = load ptr, ptr %7, align 8, !tbaa !15
  %102 = call ptr @hashTypeListpackGetLp(ptr noundef %101)
  %103 = load i64, ptr %12, align 8, !tbaa !31
  %104 = call i32 @lpSafeToAdd(ptr noundef %102, i64 noundef %103)
  %105 = icmp ne i32 %104, 0
  br i1 %105, label %110, label %106

106:                                              ; preds = %100
  %107 = load ptr, ptr %7, align 8, !tbaa !15
  %108 = load ptr, ptr %6, align 8, !tbaa !27
  %109 = getelementptr inbounds nuw %struct.redisDb, ptr %108, i32 0, i32 2
  call void @hashTypeConvert(ptr noundef %107, i32 noundef 2, ptr noundef %109)
  br label %110

110:                                              ; preds = %106, %100
  store i32 0, ptr %13, align 4
  br label %111

111:                                              ; preds = %110, %94, %38
  call void @llvm.lifetime.end.p0(i64 8, ptr %14) #12
  br label %112

112:                                              ; preds = %111, %27
  call void @llvm.lifetime.end.p0(i64 8, ptr %12) #12
  call void @llvm.lifetime.end.p0(i64 4, ptr %11) #12
  %113 = load i32, ptr %13, align 4
  switch i32 %113, label %115 [
    i32 0, label %114
    i32 1, label %114
  ]

114:                                              ; preds = %112, %112
  ret void

115:                                              ; preds = %112
  unreachable
}