; Function Attrs: nounwind uwtable
define dso_local void @hashTypeTryConversion(ptr noundef %0, ptr noundef %1, ptr noundef readonly captures(none) %2, i32 noundef %3, i32 noundef %4) local_unnamed_addr #1 {
  %6 = load i32, ptr %1, align 8
  %7 = lshr i32 %6, 4
  %8 = and i32 %7, 15
  %.off = add nsw i32 %8, -11
  %switch = icmp ult i32 %.off, 2
  br i1 %switch, label %9, label %hashTypeConvert.exit40

9:                                                ; preds = %5
  %reass.sub = sub i32 %4, %3
  %10 = add i32 %reass.sub, 1
  %11 = sdiv i32 %10, 2
  %12 = sext i32 %11 to i64
  %13 = load i64, ptr getelementptr inbounds nuw (i8, ptr @server, i64 7696), align 8, !tbaa !87
  %14 = icmp ult i64 %13, %12
  br i1 %14, label %18, label %.preheader

.preheader:                                       ; preds = %9
  %.not3551 = icmp sgt i32 %3, %4
  br i1 %.not3551, label %._crit_edge, label %.lr.ph

.lr.ph:                                           ; preds = %.preheader
  %15 = load i64, ptr getelementptr inbounds nuw (i8, ptr @server, i64 7704), align 8
  %16 = sext i32 %3 to i64
  %17 = add i32 %4, 1
  br label %25

18:                                               ; preds = %9
  %switch49 = icmp eq i32 %8, 11
  br i1 %switch49, label %19, label %20

19:                                               ; preds = %18
  tail call void @hashTypeConvertListpack(ptr noundef nonnull %1, i32 noundef 2)
  br label %hashTypeConvert.exit

20:                                               ; preds = %18
  %21 = getelementptr inbounds nuw i8, ptr %0, i64 16
  tail call void @hashTypeConvertListpackEx(ptr noundef nonnull %1, i32 noundef 2, ptr noundef nonnull %21)
  br label %hashTypeConvert.exit

hashTypeConvert.exit:                             ; preds = %19, %20
  %22 = getelementptr inbounds nuw i8, ptr %1, i64 8
  %23 = load ptr, ptr %22, align 8, !tbaa !10
  %24 = tail call i32 @dictExpand(ptr noundef %23, i64 noundef %12) #16
  br label %hashTypeConvert.exit40

25:                                               ; preds = %.lr.ph, %63
  %indvars.iv = phi i64 [ %16, %.lr.ph ], [ %indvars.iv.next, %63 ]
  %.02852 = phi i64 [ 0, %.lr.ph ], [ %.1, %63 ]
  %26 = getelementptr inbounds ptr, ptr %2, i64 %indvars.iv
  %27 = load ptr, ptr %26, align 8, !tbaa !64
  %28 = load i32, ptr %27, align 8
  %29 = lshr i32 %28, 4
  %30 = and i32 %29, 15
  switch i32 %30, label %63 [
    i32 0, label %31
    i32 8, label %31
  ]

31:                                               ; preds = %25, %25
  %32 = getelementptr inbounds nuw i8, ptr %27, i64 8
  %33 = load ptr, ptr %32, align 8, !tbaa !10
  %34 = getelementptr inbounds i8, ptr %33, i64 -1
  %35 = load i8, ptr %34, align 1, !tbaa !5
  %36 = zext i8 %35 to i32
  %37 = and i32 %36, 7
  switch i32 %37, label %hashTypeConvert.exit38 [
    i32 0, label %38
    i32 1, label %41
    i32 2, label %45
    i32 3, label %49
    i32 4, label %53
  ]

38:                                               ; preds = %31
  %39 = lshr i32 %36, 3
  %40 = zext nneg i32 %39 to i64
  br label %sdslen.exit

41:                                               ; preds = %31
  %42 = getelementptr inbounds i8, ptr %33, i64 -3
  %43 = load i8, ptr %42, align 1, !tbaa !5
  %44 = zext i8 %43 to i64
  br label %sdslen.exit

45:                                               ; preds = %31
  %46 = getelementptr inbounds i8, ptr %33, i64 -5
  %47 = load i16, ptr %46, align 1, !tbaa !8
  %48 = zext i16 %47 to i64
  br label %sdslen.exit

49:                                               ; preds = %31
  %50 = getelementptr inbounds i8, ptr %33, i64 -9
  %51 = load i32, ptr %50, align 1, !tbaa !65
  %52 = zext i32 %51 to i64
  br label %sdslen.exit

53:                                               ; preds = %31
  %54 = getelementptr inbounds i8, ptr %33, i64 -17
  %55 = load i64, ptr %54, align 1, !tbaa !28
  br label %sdslen.exit

sdslen.exit:                                      ; preds = %38, %41, %45, %49, %53
  %.0.i = phi i64 [ %55, %53 ], [ %52, %49 ], [ %48, %45 ], [ %44, %41 ], [ %40, %38 ]
  %.not37 = icmp ugt i64 %.0.i, %15
  br i1 %.not37, label %56, label %hashTypeConvert.exit38

56:                                               ; preds = %sdslen.exit
  switch i32 %8, label %61 [
    i32 11, label %57
    i32 12, label %58
    i32 2, label %60
  ]

57:                                               ; preds = %56
  tail call void @hashTypeConvertListpack(ptr noundef nonnull %1, i32 noundef 2)
  br label %hashTypeConvert.exit40

58:                                               ; preds = %56
  %59 = getelementptr inbounds nuw i8, ptr %0, i64 16
  tail call void @hashTypeConvertListpackEx(ptr noundef nonnull %1, i32 noundef 2, ptr noundef nonnull %59)
  br label %hashTypeConvert.exit40

60:                                               ; preds = %56
  tail call void (ptr, i32, ptr, ...) @_serverPanic(ptr noundef nonnull @.str.2, i32 noundef 1687, ptr noundef nonnull @.str.28) #16
  tail call void @abort() #17
  unreachable

61:                                               ; preds = %56
  tail call void (ptr, i32, ptr, ...) @_serverPanic(ptr noundef nonnull @.str.2, i32 noundef 1689, ptr noundef nonnull @.str.11) #16
  tail call void @abort() #17
  unreachable

hashTypeConvert.exit38:                           ; preds = %31, %sdslen.exit
  %.0.i43 = phi i64 [ %.0.i, %sdslen.exit ], [ 0, %31 ]
  %62 = add i64 %.0.i43, %.02852
  br label %63

63:                                               ; preds = %hashTypeConvert.exit38, %25
  %.1 = phi i64 [ %62, %hashTypeConvert.exit38 ], [ %.02852, %25 ]
  %indvars.iv.next = add nsw i64 %indvars.iv, 1
  %lftr.wideiv = trunc i64 %indvars.iv.next to i32
  %exitcond.not = icmp eq i32 %17, %lftr.wideiv
  br i1 %exitcond.not, label %._crit_edge, label %25, !llvm.loop !88

._crit_edge:                                      ; preds = %63, %.preheader
  %.028.lcssa = phi i64 [ 0, %.preheader ], [ %.1, %63 ]
  switch i32 %8, label %70 [
    i32 11, label %64
    i32 12, label %66
  ]

64:                                               ; preds = %._crit_edge
  %65 = getelementptr inbounds nuw i8, ptr %1, i64 8
  br label %hashTypeListpackGetLp.exit

66:                                               ; preds = %._crit_edge
  %67 = getelementptr inbounds nuw i8, ptr %1, i64 8
  %68 = load ptr, ptr %67, align 8, !tbaa !10
  %69 = getelementptr inbounds nuw i8, ptr %68, i64 24
  br label %hashTypeListpackGetLp.exit

70:                                               ; preds = %._crit_edge
  tail call void (ptr, i32, ptr, ...) @_serverPanic(ptr noundef nonnull @.str.2, i32 noundef 594, ptr noundef nonnull @.str.6, i32 noundef %8) #16
  tail call void @abort() #17
  unreachable

hashTypeListpackGetLp.exit:                       ; preds = %64, %66
  %.0.in.i = phi ptr [ %65, %64 ], [ %69, %66 ]
  %.0.i39 = load ptr, ptr %.0.in.i, align 8, !tbaa !86
  %71 = tail call i32 @lpSafeToAdd(ptr noundef %.0.i39, i64 noundef %.028.lcssa) #16
  %.not36 = icmp eq i32 %71, 0
  br i1 %.not36, label %72, label %hashTypeConvert.exit40

72:                                               ; preds = %hashTypeListpackGetLp.exit
  %73 = load i32, ptr %1, align 8
  %74 = lshr i32 %73, 4
  %75 = and i32 %74, 15
  switch i32 %75, label %80 [
    i32 11, label %76
    i32 12, label %77
    i32 2, label %79
  ]

76:                                               ; preds = %72
  tail call void @hashTypeConvertListpack(ptr noundef nonnull %1, i32 noundef 2)
  br label %hashTypeConvert.exit40

77:                                               ; preds = %72
  %78 = getelementptr inbounds nuw i8, ptr %0, i64 16
  tail call void @hashTypeConvertListpackEx(ptr noundef nonnull %1, i32 noundef 2, ptr noundef nonnull %78)
  br label %hashTypeConvert.exit40

79:                                               ; preds = %72
  tail call void (ptr, i32, ptr, ...) @_serverPanic(ptr noundef nonnull @.str.2, i32 noundef 1687, ptr noundef nonnull @.str.28) #16
  tail call void @abort() #17
  unreachable

80:                                               ; preds = %72
  tail call void (ptr, i32, ptr, ...) @_serverPanic(ptr noundef nonnull @.str.2, i32 noundef 1689, ptr noundef nonnull @.str.11) #16
  tail call void @abort() #17
  unreachable

hashTypeConvert.exit40:                           ; preds = %58, %57, %77, %76, %5, %hashTypeConvert.exit, %hashTypeListpackGetLp.exit
  ret void
}